; Function Attrs: mustprogress uwtable
define hidden void @_ZN14iexpr_inverter8add_defsEjPKP4exprS1_S1_(ptr nocapture noundef nonnull readonly align 8 dereferenceable(57) %this, i32 noundef %num, ptr nocapture noundef readonly %args, ptr noundef %u, ptr noundef %identity) local_unnamed_addr #6 align 2 personality ptr @__gxx_personality_v0 {
entry:
  %_id = alloca %class.obj_ref, align 8
  %m = getelementptr inbounds i8, ptr %this, i64 8
  %0 = load ptr, ptr %m, align 8
  store ptr %identity, ptr %_id, align 8
  %m_manager.i = getelementptr inbounds i8, ptr %_id, i64 8
  store ptr %0, ptr %m_manager.i, align 8
  %tobool.not.i.i = icmp eq ptr %identity, null
  br i1 %tobool.not.i.i, label %_ZN7obj_refI4expr11ast_managerEC2EPS0_RS1_.exit, label %_ZN11ast_manager7inc_refEP3ast.exit.i.i

_ZN11ast_manager7inc_refEP3ast.exit.i.i:          ; preds = %entry
  %m_ref_count.i.i.i.i = getelementptr inbounds i8, ptr %identity, i64 8
  %1 = load i32, ptr %m_ref_count.i.i.i.i, align 4
  %inc.i.i.i.i = add i32 %1, 1
  store i32 %inc.i.i.i.i, ptr %m_ref_count.i.i.i.i, align 4
  br label %_ZN7obj_refI4expr11ast_managerEC2EPS0_RS1_.exit

_ZN7obj_refI4expr11ast_managerEC2EPS0_RS1_.exit:  ; preds = %entry, %_ZN11ast_manager7inc_refEP3ast.exit.i.i
  %m_mc = getelementptr inbounds i8, ptr %this, i64 48
  %2 = load ptr, ptr %m_mc, align 8
  %cmp.i = icmp eq ptr %2, null
  br i1 %cmp.i, label %cleanup, label %if.end

lpad.loopexit:                                    ; preds = %for.body
  %lpad.loopexit7 = landingpad { ptr, i32 }
          cleanup
  br label %lpad

lpad.loopexit.split-lp:                           ; preds = %if.end
  %lpad.loopexit.split-lp8 = landingpad { ptr, i32 }
          cleanup
  br label %lpad

lpad:                                             ; preds = %lpad.loopexit.split-lp, %lpad.loopexit
  %lpad.phi = phi { ptr, i32 } [ %lpad.loopexit7, %lpad.loopexit ], [ %lpad.loopexit.split-lp8, %lpad.loopexit.split-lp ]
  call void @_ZN7obj_refI4expr11ast_managerED2Ev(ptr noundef nonnull align 8 dereferenceable(16) %_id) #15
  resume { ptr, i32 } %lpad.phi

if.end:                                           ; preds = %_ZN7obj_refI4expr11ast_managerEC2EPS0_RS1_.exit
  %3 = load ptr, ptr %args, align 8
  invoke void @_ZN14iexpr_inverter7add_defEP4exprS1_(ptr noundef nonnull align 8 dereferenceable(57) %this, ptr noundef %3, ptr noundef %u)
          to label %for.cond.preheader unwind label %lpad.loopexit.split-lp

for.cond.preheader:                               ; preds = %if.end
  %cmp9 = icmp ugt i32 %num, 1
  br i1 %cmp9, label %for.body.preheader, label %cleanup

for.body.preheader:                               ; preds = %for.cond.preheader
  %wide.trip.count = zext i32 %num to i64
  br label %for.body

for.body:                                         ; preds = %for.body.preheader, %for.inc
  %indvars.iv = phi i64 [ 1, %for.body.preheader ], [ %indvars.iv.next, %for.inc ]
  %arrayidx3 = getelementptr inbounds ptr, ptr %args, i64 %indvars.iv
  %4 = load ptr, ptr %arrayidx3, align 8
  invoke void @_ZN14iexpr_inverter7add_defEP4exprS1_(ptr noundef nonnull align 8 dereferenceable(57) %this, ptr noundef %4, ptr noundef %identity)
          to label %for.inc unwind label %lpad.loopexit

for.inc:                                          ; preds = %for.body
  %indvars.iv.next = add nuw nsw i64 %indvars.iv, 1
  %exitcond.not = icmp eq i64 %indvars.iv.next, %wide.trip.count
  br i1 %exitcond.not, label %cleanup, label %for.body, !llvm.loop !6

cleanup:                                          ; preds = %for.inc, %for.cond.preheader, %_ZN7obj_refI4expr11ast_managerEC2EPS0_RS1_.exit
  br i1 %tobool.not.i.i, label %_ZN7obj_refI4expr11ast_managerED2Ev.exit, label %if.then.i.i.i

if.then.i.i.i:                                    ; preds = %cleanup
  %m_ref_count.i.i.i.i6 = getelementptr inbounds i8, ptr %identity, i64 8
  %5 = load i32, ptr %m_ref_count.i.i.i.i6, align 4
  %dec.i.i.i.i = add i32 %5, -1
  store i32 %dec.i.i.i.i, ptr %m_ref_count.i.i.i.i6, align 4
  %cmp.i.i.i = icmp eq i32 %dec.i.i.i.i, 0
  br i1 %cmp.i.i.i, label %if.then2.i.i.i, label %_ZN7obj_refI4expr11ast_managerED2Ev.exit

if.then2.i.i.i:                                   ; preds = %if.then.i.i.i
  invoke void @_ZN11ast_manager11delete_nodeEP3ast(ptr noundef nonnull align 8 dereferenceable(976) %0, ptr noundef nonnull %identity)
          to label %_ZN7obj_refI4expr11ast_managerED2Ev.exit unwind label %terminate.lpad.i

terminate.lpad.i:                                 ; preds = %if.then2.i.i.i
  %6 = landingpad { ptr, i32 }
          catch ptr null
  %7 = extractvalue { ptr, i32 } %6, 0
  tail call void @__clang_call_terminate(ptr %7) #16
  unreachable

_ZN7obj_refI4expr11ast_managerED2Ev.exit:         ; preds = %cleanup, %if.then.i.i.i, %if.then2.i.i.i
  ret void
}